; Function Attrs: mustprogress nofree norecurse nosync nounwind willreturn memory(argmem: readwrite) uwtable
define internal noundef zeroext i1 @"_ZNSt17_Function_handlerIFN4llvm8ExpectedISt10unique_ptrINS0_16CachedFileStreamESt14default_deleteIS3_EEEEjRKNS0_5TwineEEZL17runThinLTOBackendRN5clang17DiagnosticsEngineEPNS0_18ModuleSummaryIndexEPNS0_6ModuleERKNSC_19HeaderSearchOptionsERKNSC_14CodeGenOptionsERKNSC_13TargetOptionsERKNSC_11LangOptionsES2_INS0_17raw_pwrite_streamES4_ISV_EENSt7__cxx1112basic_stringIcSt11char_traitsIcESaIcEEES13_NSC_13BackendActionEE3$_3E10_M_managerERSt9_Any_dataRKS17_St18_Manager_operation"(ptr noundef nonnull writeonly align 8 captures(none) dereferenceable(16) %0, ptr noundef nonnull align 8 dereferenceable(16) %1, i32 noundef %2) #14 align 2 {
  switch i32 %2, label %"_ZNSt14_Function_base13_Base_managerIZL17runThinLTOBackendRN5clang17DiagnosticsEngineEPN4llvm18ModuleSummaryIndexEPNS4_6ModuleERKNS1_19HeaderSearchOptionsERKNS1_14CodeGenOptionsERKNS1_13TargetOptionsERKNS1_11LangOptionsESt10unique_ptrINS4_17raw_pwrite_streamESt14default_deleteISM_EENSt7__cxx1112basic_stringIcSt11char_traitsIcESaIcEEESV_NS1_13BackendActionEE3$_3E10_M_managerERSt9_Any_dataRKSZ_St18_Manager_operation.exit" [
    i32 1, label %4
    i32 0, label %5
    i32 2, label %6
  ]

4:                                                ; preds = %3
  store ptr %1, ptr %0, align 8
  br label %"_ZNSt14_Function_base13_Base_managerIZL17runThinLTOBackendRN5clang17DiagnosticsEngineEPN4llvm18ModuleSummaryIndexEPNS4_6ModuleERKNS1_19HeaderSearchOptionsERKNS1_14CodeGenOptionsERKNS1_13TargetOptionsERKNS1_11LangOptionsESt10unique_ptrINS4_17raw_pwrite_streamESt14default_deleteISM_EENSt7__cxx1112basic_stringIcSt11char_traitsIcESaIcEEESV_NS1_13BackendActionEE3$_3E10_M_managerERSt9_Any_dataRKSZ_St18_Manager_operation.exit"

5:                                                ; preds = %3
  store ptr null, ptr %0, align 8
  br label %"_ZNSt14_Function_base13_Base_managerIZL17runThinLTOBackendRN5clang17DiagnosticsEngineEPN4llvm18ModuleSummaryIndexEPNS4_6ModuleERKNS1_19HeaderSearchOptionsERKNS1_14CodeGenOptionsERKNS1_13TargetOptionsERKNS1_11LangOptionsESt10unique_ptrINS4_17raw_pwrite_streamESt14default_deleteISM_EENSt7__cxx1112basic_stringIcSt11char_traitsIcESaIcEEESV_NS1_13BackendActionEE3$_3E10_M_managerERSt9_Any_dataRKSZ_St18_Manager_operation.exit"

6:                                                ; preds = %3
  tail call void @llvm.memcpy.p0.p0.i64(ptr noundef nonnull align 8 dereferenceable(16) %0, ptr noundef nonnull readonly align 8 dereferenceable(16) %1, i64 16, i1 false)
  br label %"_ZNSt14_Function_base13_Base_managerIZL17runThinLTOBackendRN5clang17DiagnosticsEngineEPN4llvm18ModuleSummaryIndexEPNS4_6ModuleERKNS1_19HeaderSearchOptionsERKNS1_14CodeGenOptionsERKNS1_13TargetOptionsERKNS1_11LangOptionsESt10unique_ptrINS4_17raw_pwrite_streamESt14default_deleteISM_EENSt7__cxx1112basic_stringIcSt11char_traitsIcESaIcEEESV_NS1_13BackendActionEE3$_3E10_M_managerERSt9_Any_dataRKSZ_St18_Manager_operation.exit"

"_ZNSt14_Function_base13_Base_managerIZL17runThinLTOBackendRN5clang17DiagnosticsEngineEPN4llvm18ModuleSummaryIndexEPNS4_6ModuleERKNS1_19HeaderSearchOptionsERKNS1_14CodeGenOptionsERKNS1_13TargetOptionsERKNS1_11LangOptionsESt10unique_ptrINS4_17raw_pwrite_streamESt14default_deleteISM_EENSt7__cxx1112basic_stringIcSt11char_traitsIcESaIcEEESV_NS1_13BackendActionEE3$_3E10_M_managerERSt9_Any_dataRKSZ_St18_Manager_operation.exit": ; preds = %3, %6, %5, %4
  ret i1 false
}